; Function Attrs: mustprogress uwtable
define void @_ZN6marisa6Keyset9push_backEPKc(ptr nocapture noundef nonnull align 8 dereferenceable(104) %0, ptr noundef %1) local_unnamed_addr #2 align 2 personality ptr @__gxx_personality_v0 {
  %3 = icmp eq ptr %1, null
  br i1 %3, label %4, label %.preheader

4:                                                ; preds = %2
  %5 = tail call ptr @__cxa_allocate_exception(i64 32) #11
  store ptr getelementptr inbounds inrange(-16, 24) ({ [5 x ptr] }, ptr @_ZTVN6marisa9ExceptionE, i64 0, i32 0, i64 2), ptr %5, align 8
  %6 = getelementptr inbounds i8, ptr %5, i64 8
  store ptr @.str, ptr %6, align 8
  %7 = getelementptr inbounds i8, ptr %5, i64 16
  store i32 50, ptr %7, align 8
  %8 = getelementptr inbounds i8, ptr %5, i64 20
  store i32 2, ptr %8, align 4
  %9 = getelementptr inbounds i8, ptr %5, i64 24
  store ptr @.str.1, ptr %9, align 8
  tail call void @__cxa_throw(ptr nonnull %5, ptr nonnull @_ZTIN6marisa9ExceptionE, ptr nonnull @_ZN6marisa9ExceptionD2Ev) #12
  unreachable

.preheader:                                       ; preds = %2, %.preheader
  %.0 = phi i64 [ %12, %.preheader ], [ 0, %2 ]
  %10 = getelementptr inbounds i8, ptr %1, i64 %.0
  %11 = load i8, ptr %10, align 1
  %.not = icmp eq i8 %11, 0
  %12 = add i64 %.0, 1
  br i1 %.not, label %13, label %.preheader, !llvm.loop !8

13:                                               ; preds = %.preheader
  tail call void @_ZN6marisa6Keyset9push_backEPKcmf(ptr noundef nonnull align 8 dereferenceable(104) %0, ptr noundef nonnull %1, i64 noundef %.0, float noundef 1.000000e+00)
  ret void
}